; Function Attrs: mustprogress nofree norecurse nosync nounwind willreturn memory(argmem: read) uwtable
define dso_local range(i32 0, 2) i32 @uv_loop_alive(ptr noundef readonly captures(address) %0) local_unnamed_addr #7 {
  %2 = getelementptr inbounds nuw i8, ptr %0, i64 8
  %3 = load i32, ptr %2, align 8
  %.not.i = icmp eq i32 %3, 0
  br i1 %.not.i, label %4, label %uv__loop_alive.exit

4:                                                ; preds = %1
  %5 = getelementptr inbounds nuw i8, ptr %0, i64 32
  %6 = load i32, ptr %5, align 8
  %.not4.i = icmp eq i32 %6, 0
  br i1 %.not4.i, label %7, label %uv__loop_alive.exit

7:                                                ; preds = %4
  %8 = getelementptr inbounds nuw i8, ptr %0, i64 72
  %9 = load ptr, ptr %8, align 8
  %.not6.i = icmp eq ptr %8, %9
  br i1 %.not6.i, label %10, label %uv__loop_alive.exit

10:                                               ; preds = %7
  %11 = getelementptr inbounds nuw i8, ptr %0, i64 360
  %12 = load ptr, ptr %11, align 8
  %13 = icmp ne ptr %12, null
  %14 = zext i1 %13 to i32
  br label %uv__loop_alive.exit

uv__loop_alive.exit:                              ; preds = %1, %4, %7, %10
  %15 = phi i32 [ 1, %7 ], [ 1, %4 ], [ 1, %1 ], [ %14, %10 ]
  ret i32 %15
}